     1 00000000                                 [FORMAT "WCOFF"]
     2 00000000                                 [INSTRSET "i486p"]
     3 00000000                                 [OPTIMIZE 1]
     4 00000000                                 [OPTION 1]
     5 00000000                                 [BITS 32]
     6 00000000                                 	EXTERN	_api_initmalloc
     7 00000000                                 	EXTERN	_api_malloc
     8 00000000                                 	EXTERN	_api_openwin
     9 00000000                                 	EXTERN	_api_boxfilwin
    10 00000000                                 	EXTERN	_sprintf
    11 00000000                                 	EXTERN	_api_putstr0
    12 00000000                                 	EXTERN	_api_getkey
    13 00000000                                 	EXTERN	_api_end
    14 00000000                                 	EXTERN	_api_putstrwin
    15 00000000                                 	EXTERN	_api_refreshwin
    16 00000000                                 	EXTERN	_api_fopen
    17 00000000                                 	EXTERN	_api_fclose
    18 00000000                                 [FILE "filemgr.c"]
    19 00000000                                 	GLOBAL	_file_list
    20                                          [SECTION .data]
    21 00000000                                 _file_list:
    22 00000000 41 00                           	DB	"A",0x00
    23 00000002 00 00 00 00 00 00 00 00 00 00   	RESB	11
       0000000C 00 
    24 0000000D 48 52 42 00                     	DB	"HRB",0x00
    25 00000011 00 00 00                        	RESB	3
    26 00000014 000004D2                        	DD	1234
    27 00000018 48 45 4C 4C 4F 33 00            	DB	"HELLO3",0x00
    28 0000001F 00 00 00 00 00 00               	RESB	6
    29 00000025 48 52 42 00                     	DB	"HRB",0x00
    30 00000029 00 00 00                        	RESB	3
    31 0000002C 0000162E                        	DD	5678
    32 00000030 48 45 4C 4C 4F 34 00            	DB	"HELLO4",0x00
    33 00000037 00 00 00 00 00 00               	RESB	6
    34 0000003D 48 52 42 00                     	DB	"HRB",0x00
    35 00000041 00 00 00                        	RESB	3
    36 00000044 00002334                        	DD	9012
    37 00000048 48 45 4C 4C 4F 35 00            	DB	"HELLO5",0x00
    38 0000004F 00 00 00 00 00 00               	RESB	6
    39 00000055 48 52 42 00                     	DB	"HRB",0x00
    40 00000059 00 00 00                        	RESB	3
    41 0000005C 00000D80                        	DD	3456
    42 00000060 57 49 4E 48 45 4C 4F 00         	DB	"WINHELO",0x00
    43 00000068 00 00 00 00 00                  	RESB	5
    44 0000006D 48 52 42 00                     	DB	"HRB",0x00
    45 00000071 00 00 00                        	RESB	3
    46 00000074 00001ED2                        	DD	7890
    47 00000078 57 49 4E 48 45 4C 4F 32 00      	DB	"WINHELO2",0x00
    48 00000081 00 00 00 00                     	RESB	4
    49 00000085 48 52 42 00                     	DB	"HRB",0x00
    50 00000089 00 00 00                        	RESB	3
    51 0000008C 00000929                        	DD	2345
    52 00000090 57 49 4E 48 45 4C 4F 33 00      	DB	"WINHELO3",0x00
    53 00000099 00 00 00 00                     	RESB	4
    54 0000009D 48 52 42 00                     	DB	"HRB",0x00
    55 000000A1 00 00 00                        	RESB	3
    56 000000A4 00001A85                        	DD	6789
    57 000000A8 53 54 41 52 31 00               	DB	"STAR1",0x00
    58 000000AE 00 00 00 00 00 00 00            	RESB	7
    59 000000B5 48 52 42 00                     	DB	"HRB",0x00
    60 000000B9 00 00 00                        	RESB	3
    61 000000BC 000004D2                        	DD	1234
    62 000000C0 53 54 41 52 53 00               	DB	"STARS",0x00
    63 000000C6 00 00 00 00 00 00 00            	RESB	7
    64 000000CD 48 52 42 00                     	DB	"HRB",0x00
    65 000000D1 00 00 00                        	RESB	3
    66 000000D4 0000162E                        	DD	5678
    67 000000D8 53 54 41 52 53 32 00            	DB	"STARS2",0x00
    68 000000DF 00 00 00 00 00 00               	RESB	6
    69 000000E5 48 52 42 00                     	DB	"HRB",0x00
    70 000000E9 00 00 00                        	RESB	3
    71 000000EC 00002334                        	DD	9012
    72 000000F0 4C 49 4E 45 53 00               	DB	"LINES",0x00
    73 000000F6 00 00 00 00 00 00 00            	RESB	7
    74 000000FD 48 52 42 00                     	DB	"HRB",0x00
    75 00000101 00 00 00                        	RESB	3
    76 00000104 00000D80                        	DD	3456
    77 00000108 57 41 4C 4B 00                  	DB	"WALK",0x00
    78 0000010D 00 00 00 00 00 00 00 00         	RESB	8
    79 00000115 48 52 42 00                     	DB	"HRB",0x00
    80 00000119 00 00 00                        	RESB	3
    81 0000011C 00001ED2                        	DD	7890
    82 00000120 4E 4F 4F 44 4C 45 00            	DB	"NOODLE",0x00
    83 00000127 00 00 00 00 00 00               	RESB	6
    84 0000012D 48 52 42 00                     	DB	"HRB",0x00
    85 00000131 00 00 00                        	RESB	3
    86 00000134 00000929                        	DD	2345
    87 00000138 42 45 45 50 44 4F 57 4E 00      	DB	"BEEPDOWN",0x00
    88 00000141 00 00 00 00                     	RESB	4
    89 00000145 48 52 42 00                     	DB	"HRB",0x00
    90 00000149 00 00 00                        	RESB	3
    91 0000014C 00001A85                        	DD	6789
    92 00000150 43 4F 4C 4F 52 00               	DB	"COLOR",0x00
    93 00000156 00 00 00 00 00 00 00            	RESB	7
    94 0000015D 48 52 42 00                     	DB	"HRB",0x00
    95 00000161 00 00 00                        	RESB	3
    96 00000164 000004D2                        	DD	1234
    97 00000168 43 4F 4C 4F 52 32 00            	DB	"COLOR2",0x00
    98 0000016F 00 00 00 00 00 00               	RESB	6
    99 00000175 48 52 42 00                     	DB	"HRB",0x00
   100 00000179 00 00 00                        	RESB	3
   101 0000017C 0000162E                        	DD	5678
   102 00000180 53 4F 53 55 00                  	DB	"SOSU",0x00
   103 00000185 00 00 00 00 00 00 00 00         	RESB	8
   104 0000018D 48 52 42 00                     	DB	"HRB",0x00
   105 00000191 00 00 00                        	RESB	3
   106 00000194 00002334                        	DD	9012
   107 00000198 53 4F 53 55 32 00               	DB	"SOSU2",0x00
   108 0000019E 00 00 00 00 00 00 00            	RESB	7
   109 000001A5 48 52 42 00                     	DB	"HRB",0x00
   110 000001A9 00 00 00                        	RESB	3
   111 000001AC 00000D80                        	DD	3456
   112 000001B0 53 4F 53 55 33 00               	DB	"SOSU3",0x00
   113 000001B6 00 00 00 00 00 00 00            	RESB	7
   114 000001BD 48 52 42 00                     	DB	"HRB",0x00
   115 000001C1 00 00 00                        	RESB	3
   116 000001C4 00001ED2                        	DD	7890
   117 000001C8 54 59 50 45 00                  	DB	"TYPE",0x00
   118 000001CD 00 00 00 00 00 00 00 00         	RESB	8
   119 000001D5 48 52 42 00                     	DB	"HRB",0x00
   120 000001D9 00 00 00                        	RESB	3
   121 000001DC 00000929                        	DD	2345
   122 000001E0 49 52 4F 48 41 00               	DB	"IROHA",0x00
   123 000001E6 00 00 00 00 00 00 00            	RESB	7
   124 000001ED 48 52 42 00                     	DB	"HRB",0x00
   125 000001F1 00 00 00                        	RESB	3
   126 000001F4 00001A85                        	DD	6789
   127 000001F8 43 48 4B 4C 41 4E 47 00         	DB	"CHKLANG",0x00
   128 00000200 00 00 00 00 00                  	RESB	5
   129 00000205 48 52 42 00                     	DB	"HRB",0x00
   130 00000209 00 00 00                        	RESB	3
   131 0000020C 000004D2                        	DD	1234
   132 00000210 4E 4F 54 52 45 43 00            	DB	"NOTREC",0x00
   133 00000217 00 00 00 00 00 00               	RESB	6
   134 0000021D 48 52 42 00                     	DB	"HRB",0x00
   135 00000221 00 00 00                        	RESB	3
   136 00000224 0000162E                        	DD	5678
   137 00000228 42 42 41 4C 4C 00               	DB	"BBALL",0x00
   138 0000022E 00 00 00 00 00 00 00            	RESB	7
   139 00000235 48 52 42 00                     	DB	"HRB",0x00
   140 00000239 00 00 00                        	RESB	3
   141 0000023C 00002334                        	DD	9012
   142 00000240 49 4E 56 41 44 45 52 00         	DB	"INVADER",0x00
   143 00000248 00 00 00 00 00                  	RESB	5
   144 0000024D 48 52 42 00                     	DB	"HRB",0x00
   145 00000251 00 00 00                        	RESB	3
   146 00000254 00000D80                        	DD	3456
   147 00000258 43 41 4C 43 00                  	DB	"CALC",0x00
   148 0000025D 00 00 00 00 00 00 00 00         	RESB	8
   149 00000265 48 52 42 00                     	DB	"HRB",0x00
   150 00000269 00 00 00                        	RESB	3
   151 0000026C 00001ED2                        	DD	7890
   152 00000270 54 56 49 45 57 00               	DB	"TVIEW",0x00
   153 00000276 00 00 00 00 00 00 00            	RESB	7
   154 0000027D 48 52 42 00                     	DB	"HRB",0x00
   155 00000281 00 00 00                        	RESB	3
   156 00000284 00000929                        	DD	2345
   157 00000288 4D 4D 4C 50 4C 41 59 00         	DB	"MMLPLAY",0x00
   158 00000290 00 00 00 00 00                  	RESB	5
   159 00000295 48 52 42 00                     	DB	"HRB",0x00
   160 00000299 00 00 00                        	RESB	3
   161 0000029C 00001A85                        	DD	6789
   162 000002A0 47 56 49 45 57 00               	DB	"GVIEW",0x00
   163 000002A6 00 00 00 00 00 00 00            	RESB	7
   164 000002AD 48 52 42 00                     	DB	"HRB",0x00
   165 000002B1 00 00 00                        	RESB	3
   166 000002B4 000004D2                        	DD	1234
   167 000002B8 46 49 4C 45 4D 47 52 00         	DB	"FILEMGR",0x00
   168 000002C0 00 00 00 00 00                  	RESB	5
   169 000002C5 48 52 42 00                     	DB	"HRB",0x00
   170 000002C9 00 00 00                        	RESB	3
   171 000002CC 0000076D                        	DD	1901
   172 000002D0 4B 49 52 41 4B 49 52 41 00      	DB	"KIRAKIRA",0x00
   173 000002D9 00 00 00 00                     	RESB	4
   174 000002DD 4D 4D 4C 00                     	DB	"MML",0x00
   175 000002E1 00 00 00                        	RESB	3
   176 000002E4 00001388                        	DD	5000
   177 000002E8 46 55 4A 49 53 41 4E 00         	DB	"FUJISAN",0x00
   178 000002F0 00 00 00 00 00                  	RESB	5
   179 000002F5 4D 4D 4C 00                     	DB	"MML",0x00
   180 000002F9 00 00 00                        	RESB	3
   181 000002FC 00001770                        	DD	6000
   182 00000300 44 41 49 47 4F 00               	DB	"DAIGO",0x00
   183 00000306 00 00 00 00 00 00 00            	RESB	7
   184 0000030D 4D 4D 4C 00                     	DB	"MML",0x00
   185 00000311 00 00 00                        	RESB	3
   186 00000314 00001B58                        	DD	7000
   187 00000318 44 41 49 4B 55 00               	DB	"DAIKU",0x00
   188 0000031E 00 00 00 00 00 00 00            	RESB	7
   189 00000325 4D 4D 4C 00                     	DB	"MML",0x00
   190 00000329 00 00 00                        	RESB	3
   191 0000032C 00001F40                        	DD	8000
   192 00000330 46 55 4A 49 53 41 4E 00         	DB	"FUJISAN",0x00
   193 00000338 00 00 00 00 00                  	RESB	5
   194 0000033D 4A 50 47 00                     	DB	"JPG",0x00
   195 00000341 00 00 00                        	RESB	3
   196 00000344 00002710                        	DD	10000
   197 00000348 4E 49 47 48 54 00               	DB	"NIGHT",0x00
   198 0000034E 00 00 00 00 00 00 00            	RESB	7
   199 00000355 42 4D 50 00                     	DB	"BMP",0x00
   200 00000359 00 00 00                        	RESB	3
   201 0000035C 00003A98                        	DD	15000
   202 00000360 45 55 43 00                     	DB	"EUC",0x00
   203 00000364 00 00 00 00 00 00 00 00 00      	RESB	9
   204 0000036D 54 58 54 00                     	DB	"TXT",0x00
   205 00000371 00 00 00                        	RESB	3
   206 00000374 000007D0                        	DD	2000
   207 00000378 00                              	DB	0x00
   208 00000379 00 00 00 00 00 00 00 00 00 00   	RESB	12
       00000383 00 00 
   209 00000385 00                              	DB	0x00
   210 00000386 00 00 00                        	RESB	3
   211 00000389 00 00 00                        	RESB	3
   212 0000038C 00000000                        	DD	0
   213 00000390                                 LC1:
   214 00000390 46 69 6C 65 4D 67 72 00         	DB	"FileMgr",0x00
   215 00000398                                 LC2:
   216 00000398 46 69 6C 65 73 3A 20 25 64 0A   	DB	"Files: %d",0x0A,0x00
       000003A2 00 
   217 000003A3                                 LC0:
   218 000003A3 4D 65 6D 6F 72 79 20 61 6C 6C   	DB	"Memory allocation failed",0x0A,0x00
       000003AD 6F 63 61 74 69 6F 6E 20 66 61 
       000003B7 69 6C 65 64 0A 00 
   219                                          [SECTION .text]
   220 00000000                                 	GLOBAL	_HariMain
   221 00000000                                 _HariMain:
   222 00000000 55                              	PUSH	EBP
   223 00000001 89 E5                           	MOV	EBP,ESP
   224 00000003 57                              	PUSH	EDI
   225 00000004 56                              	PUSH	ESI
   226 00000005 31 FF                           	XOR	EDI,EDI
   227 00000007 53                              	PUSH	EBX
   228 00000008 31 F6                           	XOR	ESI,ESI
   229 0000000A 83 EC 24                        	SUB	ESP,36
   230 0000000D E8 [00000000]                   	CALL	_api_initmalloc
   231 00000012 68 0000E100                     	PUSH	57600
   232 00000017 E8 [00000000]                   	CALL	_api_malloc
   233 0000001C 89 C3                           	MOV	EBX,EAX
   234 0000001E 58                              	POP	EAX
   235 0000001F 85 DB                           	TEST	EBX,EBX
   236 00000021 0F 84 00000109                  	JE	L25
   237 00000027                                 L2:
   238 00000027 68 [00000390]                   	PUSH	LC1
   239 0000002C 6A FF                           	PUSH	-1
   240 0000002E 68 000000F0                     	PUSH	240
   241 00000033 68 000000F0                     	PUSH	240
   242 00000038 53                              	PUSH	EBX
   243 00000039 E8 [00000000]                   	CALL	_api_openwin
   244 0000003E 6A 07                           	PUSH	7
   245 00000040 68 000000EF                     	PUSH	239
   246 00000045 68 000000EF                     	PUSH	239
   247 0000004A 89 45 D0                        	MOV	DWORD [-48+EBP],EAX
   248 0000004D 6A 00                           	PUSH	0
   249 0000004F 6A 00                           	PUSH	0
   250 00000051 50                              	PUSH	EAX
   251 00000052 E8 [00000000]                   	CALL	_api_boxfilwin
   252 00000057 83 C4 2C                        	ADD	ESP,44
   253 0000005A 6A 01                           	PUSH	1
   254 0000005C 6A 1D                           	PUSH	29
   255 0000005E 68 000000EF                     	PUSH	239
   256 00000063 6A 00                           	PUSH	0
   257 00000065 6A 00                           	PUSH	0
   258 00000067 FF 75 D0                        	PUSH	DWORD [-48+EBP]
   259 0000006A E8 [00000000]                   	CALL	_api_boxfilwin
   260 0000006F 83 C4 18                        	ADD	ESP,24
   261 00000072 80 3D [00000000] 00             	CMP	BYTE [_file_list],0
   262 00000079 74 0E                           	JE	L24
   263 0000007B B8 [00000000]                   	MOV	EAX,_file_list
   264 00000080                                 L6:
   265 00000080 83 C0 18                        	ADD	EAX,24
   266 00000083 47                              	INC	EDI
   267 00000084 80 38 00                        	CMP	BYTE [EAX],0
   268 00000087 75 F7                           	JNE	L6
   269 00000089                                 L24:
   270 00000089 57                              	PUSH	EDI
   271 0000008A 8D 5D D4                        	LEA	EBX,DWORD [-44+EBP]
   272 0000008D 68 [00000398]                   	PUSH	LC2
   273 00000092 53                              	PUSH	EBX
   274 00000093 E8 [00000000]                   	CALL	_sprintf
   275 00000098 53                              	PUSH	EBX
   276 00000099 E8 [00000000]                   	CALL	_api_putstr0
   277 0000009E 83 C4 10                        	ADD	ESP,16
   278 000000A1                                 L7:
   279 000000A1 56                              	PUSH	ESI
   280 000000A2 57                              	PUSH	EDI
   281 000000A3 FF 75 D0                        	PUSH	DWORD [-48+EBP]
   282 000000A6 E8 0000009A                     	CALL	_draw_file_list
   283 000000AB 6A 01                           	PUSH	1
   284 000000AD E8 [00000000]                   	CALL	_api_getkey
   285 000000B2 83 C4 10                        	ADD	ESP,16
   286 000000B5 89 C3                           	MOV	EBX,EAX
   287 000000B7 83 F8 51                        	CMP	EAX,81
   288 000000BA 74 6D                           	JE	L11
   289 000000BC 83 F8 71                        	CMP	EAX,113
   290 000000BF 74 68                           	JE	L11
   291 000000C1                                 L10:
   292 000000C1 83 FB 1B                        	CMP	EBX,27
   293 000000C4 74 5C                           	JE	L26
   294 000000C6                                 L12:
   295 000000C6 83 FB 0D                        	CMP	EBX,13
   296 000000C9 74 3A                           	JE	L27
   297 000000CB                                 L13:
   298 000000CB 83 FB 28                        	CMP	EBX,40
   299 000000CE 74 2B                           	JE	L28
   300 000000D0                                 L15:
   301 000000D0 83 FB 26                        	CMP	EBX,38
   302 000000D3 74 1F                           	JE	L29
   303 000000D5                                 L17:
   304 000000D5 83 FB 21                        	CMP	EBX,33
   305 000000D8 74 11                           	JE	L30
   306 000000DA                                 L19:
   307 000000DA 83 FB 22                        	CMP	EBX,34
   308 000000DD 75 C2                           	JNE	L7
   309 000000DF 83 C6 0D                        	ADD	ESI,13
   310 000000E2 39 FE                           	CMP	ESI,EDI
   311 000000E4 7C BB                           	JL	L7
   312 000000E6 8D 77 FF                        	LEA	ESI,DWORD [-1+EDI]
   313 000000E9 EB B6                           	JMP	L7
   314 000000EB                                 L30:
   315 000000EB 83 EE 0D                        	SUB	ESI,13
   316 000000EE 79 EA                           	JNS	L19
   317 000000F0 31 F6                           	XOR	ESI,ESI
   318 000000F2 EB E6                           	JMP	L19
   319 000000F4                                 L29:
   320 000000F4 4E                              	DEC	ESI
   321 000000F5 79 DE                           	JNS	L17
   322 000000F7 31 F6                           	XOR	ESI,ESI
   323 000000F9 EB DA                           	JMP	L17
   324 000000FB                                 L28:
   325 000000FB 46                              	INC	ESI
   326 000000FC 39 FE                           	CMP	ESI,EDI
   327 000000FE 7C D0                           	JL	L15
   328 00000100 8D 77 FF                        	LEA	ESI,DWORD [-1+EDI]
   329 00000103 EB CB                           	JMP	L15
   330 00000105                                 L27:
   331 00000105 85 FF                           	TEST	EDI,EDI
   332 00000107 7E C2                           	JLE	L13
   333 00000109 6B C6 18                        	IMUL	EAX,ESI,24
   334 0000010C 8D 90 [0000000D]                	LEA	EDX,DWORD [_file_list+13+EAX]
   335 00000112 05 [00000000]                   	ADD	EAX,_file_list
   336 00000117 52                              	PUSH	EDX
   337 00000118 50                              	PUSH	EAX
   338 00000119 E8 0000014E                     	CALL	_run_file
   339 0000011E 58                              	POP	EAX
   340 0000011F 5A                              	POP	EDX
   341 00000120 EB A9                           	JMP	L13
   342 00000122                                 L26:
   343 00000122 E8 [00000000]                   	CALL	_api_end
   344 00000127 EB 9D                           	JMP	L12
   345 00000129                                 L11:
   346 00000129 E8 [00000000]                   	CALL	_api_end
   347 0000012E EB 91                           	JMP	L10
   348 00000130                                 L25:
   349 00000130 68 [000003A3]                   	PUSH	LC0
   350 00000135 E8 [00000000]                   	CALL	_api_putstr0
   351 0000013A E8 [00000000]                   	CALL	_api_end
   352 0000013F 59                              	POP	ECX
   353 00000140 E9 FFFFFEE2                     	JMP	L2
   354                                          [SECTION .data]
   355 000003BD                                 LC3:
   356 000003BD 25 73 2E 25 73 20 25 37 64 00   	DB	"%s.%s %7d",0x00
   357 000003C7                                 LC4:
   358 000003C7 25 73 20 20 20 20 20 20 20 25   	DB	"%s       %7d",0x00
       000003D1 37 64 00 
   359                                          [SECTION .text]
   360 00000145                                 	GLOBAL	_draw_file_list
   361 00000145                                 _draw_file_list:
   362 00000145 55                              	PUSH	EBP
   363 00000146 89 E5                           	MOV	EBP,ESP
   364 00000148 57                              	PUSH	EDI
   365 00000149 56                              	PUSH	ESI
   366 0000014A 31 FF                           	XOR	EDI,EDI
   367 0000014C 53                              	PUSH	EBX
   368 0000014D 83 EC 2C                        	SUB	ESP,44
   369 00000150 6A 07                           	PUSH	7
   370 00000152 68 000000EF                     	PUSH	239
   371 00000157 68 000000EF                     	PUSH	239
   372 0000015C 6A 1E                           	PUSH	30
   373 0000015E 6A 00                           	PUSH	0
   374 00000160 FF 75 08                        	PUSH	DWORD [8+EBP]
   375 00000163 E8 [00000000]                   	CALL	_api_boxfilwin
   376 00000168 8B 75 10                        	MOV	ESI,DWORD [16+EBP]
   377 0000016B 6B 45 10 18                     	IMUL	EAX,DWORD [16+EBP],24
   378 0000016F 83 C4 18                        	ADD	ESP,24
   379 00000172 83 EE 06                        	SUB	ESI,6
   380 00000175 C7 45 C8 00000022               	MOV	DWORD [-56+EBP],34
   381 0000017C 8D 98 FFFFFF70                  	LEA	EBX,DWORD [-144+EAX]
   382 00000182 C7 45 D0 0000000C               	MOV	DWORD [-48+EBP],12
   383 00000189                                 L42:
   384 00000189 85 F6                           	TEST	ESI,ESI
   385 0000018B 78 7C                           	JS	L34
   386 0000018D 3B 75 0C                        	CMP	ESI,DWORD [12+EBP]
   387 00000190 7D 77                           	JGE	L34
   388 00000192 3B 75 10                        	CMP	ESI,DWORD [16+EBP]
   389 00000195 0F 84 000000C0                  	JE	L45
   390 0000019B B8 00000007                     	MOV	EAX,7
   391 000001A0 C7 45 CC 00000000               	MOV	DWORD [-52+EBP],0
   392 000001A7                                 L39:
   393 000001A7 50                              	PUSH	EAX
   394 000001A8 8D 47 2D                        	LEA	EAX,DWORD [45+EDI]
   395 000001AB 50                              	PUSH	EAX
   396 000001AC 8D 47 1E                        	LEA	EAX,DWORD [30+EDI]
   397 000001AF 68 000000EF                     	PUSH	239
   398 000001B4 50                              	PUSH	EAX
   399 000001B5 6A 00                           	PUSH	0
   400 000001B7 FF 75 08                        	PUSH	DWORD [8+EBP]
   401 000001BA E8 [00000000]                   	CALL	_api_boxfilwin
   402 000001BF 83 C4 18                        	ADD	ESP,24
   403 000001C2 80 BB [0000000D] 00             	CMP	BYTE [_file_list+13+EBX],0
   404 000001C9 74 70                           	JE	L40
   405 000001CB FF B3 [00000014]                	PUSH	DWORD [_file_list+20+EBX]
   406 000001D1 8D 83 [0000000D]                	LEA	EAX,DWORD [_file_list+13+EBX]
   407 000001D7 50                              	PUSH	EAX
   408 000001D8 8D 83 [00000000]                	LEA	EAX,DWORD [_file_list+EBX]
   409 000001DE 50                              	PUSH	EAX
   410 000001DF 8D 45 D4                        	LEA	EAX,DWORD [-44+EBP]
   411 000001E2 68 [000003BD]                   	PUSH	LC3
   412 000001E7 50                              	PUSH	EAX
   413 000001E8 E8 [00000000]                   	CALL	_sprintf
   414 000001ED 83 C4 14                        	ADD	ESP,20
   415 000001F0                                 L41:
   416 000001F0 8D 45 D4                        	LEA	EAX,DWORD [-44+EBP]
   417 000001F3 50                              	PUSH	EAX
   418 000001F4 6A 14                           	PUSH	20
   419 000001F6 FF 75 CC                        	PUSH	DWORD [-52+EBP]
   420 000001F9 FF 75 C8                        	PUSH	DWORD [-56+EBP]
   421 000001FC 6A 08                           	PUSH	8
   422 000001FE FF 75 08                        	PUSH	DWORD [8+EBP]
   423 00000201 E8 [00000000]                   	CALL	_api_putstrwin
   424 00000206 83 C4 18                        	ADD	ESP,24
   425 00000209                                 L34:
   426 00000209 83 45 C8 10                     	ADD	DWORD [-56+EBP],16
   427 0000020D 83 C3 18                        	ADD	EBX,24
   428 00000210 83 C7 10                        	ADD	EDI,16
   429 00000213 46                              	INC	ESI
   430 00000214 FF 4D D0                        	DEC	DWORD [-48+EBP]
   431 00000217 0F 89 FFFFFF6C                  	JNS	L42
   432 0000021D 68 000000F0                     	PUSH	240
   433 00000222 68 000000F0                     	PUSH	240
   434 00000227 6A 00                           	PUSH	0
   435 00000229 6A 00                           	PUSH	0
   436 0000022B FF 75 08                        	PUSH	DWORD [8+EBP]
   437 0000022E E8 [00000000]                   	CALL	_api_refreshwin
   438 00000233 8D 65 F4                        	LEA	ESP,DWORD [-12+EBP]
   439 00000236 5B                              	POP	EBX
   440 00000237 5E                              	POP	ESI
   441 00000238 5F                              	POP	EDI
   442 00000239 5D                              	POP	EBP
   443 0000023A C3                              	RET
   444 0000023B                                 L40:
   445 0000023B FF B3 [00000014]                	PUSH	DWORD [_file_list+20+EBX]
   446 00000241 8D 83 [00000000]                	LEA	EAX,DWORD [_file_list+EBX]
   447 00000247 50                              	PUSH	EAX
   448 00000248 8D 45 D4                        	LEA	EAX,DWORD [-44+EBP]
   449 0000024B 68 [000003C7]                   	PUSH	LC4
   450 00000250 50                              	PUSH	EAX
   451 00000251 E8 [00000000]                   	CALL	_sprintf
   452 00000256 83 C4 10                        	ADD	ESP,16
   453 00000259 EB 95                           	JMP	L41
   454 0000025B                                 L45:
   455 0000025B B8 00000001                     	MOV	EAX,1
   456 00000260 C7 45 CC 00000007               	MOV	DWORD [-52+EBP],7
   457 00000267 E9 FFFFFF3B                     	JMP	L39
   458                                          [SECTION .data]
   459 000003D4                                 LC16:
   460 000003D4 55 6E 6B 6E 6F 77 6E 20 66 69   	DB	"Unknown file type: ",0x00
       000003DE 6C 65 20 74 79 70 65 3A 20 00 
   461 000003E8                                 LC10:
   462 000003E8 0A 00                           	DB	0x0A,0x00
   463 000003EA                                 LC13:
   464 000003EA 55 73 65 20 67 76 69 65 77 20   	DB	"Use gview to view: ",0x00
       000003F4 74 6F 20 76 69 65 77 3A 20 00 
   465 000003FE                                 LC15:
   466 000003FE 2E 42 4D 50 0A 00               	DB	".BMP",0x0A,0x00
   467 00000404                                 LC14:
   468 00000404 2E 4A 50 47 0A 00               	DB	".JPG",0x0A,0x00
   469 0000040A                                 LC11:
   470 0000040A 55 73 65 20 6D 6D 6C 70 6C 61   	DB	"Use mmlplay to play: ",0x00
       00000414 79 20 74 6F 20 70 6C 61 79 3A 
       0000041E 20 00 
   471 00000420                                 LC12:
   472 00000420 2E 4D 4D 4C 0A 00               	DB	".MML",0x0A,0x00
   473 00000426                                 LC5:
   474 00000426 25 73 2E 48 52 42 00            	DB	"%s.HRB",0x00
   475 0000042D                                 LC6:
   476 0000042D 53 74 61 72 74 69 6E 67 20 00   	DB	"Starting ",0x00
   477 00000437                                 LC7:
   478 00000437 2E 2E 2E 0A 00                  	DB	"...",0x0A,0x00
   479 0000043C                                 LC8:
   480 0000043C 46 69 6C 65 20 6E 6F 74 20 66   	DB	"File not found.",0x0A,0x00
       00000446 6F 75 6E 64 2E 0A 00 
   481 0000044D                                 LC9:
   482 0000044D 55 73 65 20 63 6F 6E 73 6F 6C   	DB	"Use console to run: ",0x00
       00000457 65 20 74 6F 20 72 75 6E 3A 20 
       00000461 00 
   483                                          [SECTION .text]
   484 0000026C                                 	GLOBAL	_run_file
   485 0000026C                                 _run_file:
   486 0000026C 55                              	PUSH	EBP
   487 0000026D 89 E5                           	MOV	EBP,ESP
   488 0000026F 56                              	PUSH	ESI
   489 00000270 53                              	PUSH	EBX
   490 00000271 83 EC 20                        	SUB	ESP,32
   491 00000274 8B 5D 0C                        	MOV	EBX,DWORD [12+EBP]
   492 00000277 8B 75 08                        	MOV	ESI,DWORD [8+EBP]
   493 0000027A 8A 03                           	MOV	AL,BYTE [EBX]
   494 0000027C 3C 48                           	CMP	AL,72
   495 0000027E 0F 84 0000009D                  	JE	L57
   496 00000284                                 L47:
   497 00000284 3C 4D                           	CMP	AL,77
   498 00000286 74 72                           	JE	L58
   499 00000288                                 L50:
   500 00000288 3C 4A                           	CMP	AL,74
   501 0000028A 74 4B                           	JE	L59
   502 0000028C                                 L52:
   503 0000028C 3C 42                           	CMP	AL,66
   504 0000028E 74 24                           	JE	L60
   505 00000290                                 L54:
   506 00000290 68 [000003D4]                   	PUSH	LC16
   507 00000295 E8 [00000000]                   	CALL	_api_putstr0
   508 0000029A 53                              	PUSH	EBX
   509 0000029B E8 [00000000]                   	CALL	_api_putstr0
   510 000002A0 68 [000003E8]                   	PUSH	LC10
   511 000002A5                                 L56:
   512 000002A5 E8 [00000000]                   	CALL	_api_putstr0
   513 000002AA 83 C4 0C                        	ADD	ESP,12
   514 000002AD                                 L46:
   515 000002AD 8D 65 F8                        	LEA	ESP,DWORD [-8+EBP]
   516 000002B0 5B                              	POP	EBX
   517 000002B1 5E                              	POP	ESI
   518 000002B2 5D                              	POP	EBP
   519 000002B3 C3                              	RET
   520 000002B4                                 L60:
   521 000002B4 80 7B 01 4D                     	CMP	BYTE [1+EBX],77
   522 000002B8 75 D6                           	JNE	L54
   523 000002BA 80 7B 02 50                     	CMP	BYTE [2+EBX],80
   524 000002BE 75 D0                           	JNE	L54
   525 000002C0 68 [000003EA]                   	PUSH	LC13
   526 000002C5 E8 [00000000]                   	CALL	_api_putstr0
   527 000002CA 56                              	PUSH	ESI
   528 000002CB E8 [00000000]                   	CALL	_api_putstr0
   529 000002D0 68 [000003FE]                   	PUSH	LC15
   530 000002D5 EB CE                           	JMP	L56
   531 000002D7                                 L59:
   532 000002D7 80 7B 01 50                     	CMP	BYTE [1+EBX],80
   533 000002DB 75 AF                           	JNE	L52
   534 000002DD 80 7B 02 47                     	CMP	BYTE [2+EBX],71
   535 000002E1 75 A9                           	JNE	L52
   536 000002E3 68 [000003EA]                   	PUSH	LC13
   537 000002E8 E8 [00000000]                   	CALL	_api_putstr0
   538 000002ED 56                              	PUSH	ESI
   539 000002EE E8 [00000000]                   	CALL	_api_putstr0
   540 000002F3 68 [00000404]                   	PUSH	LC14
   541 000002F8 EB AB                           	JMP	L56
   542 000002FA                                 L58:
   543 000002FA 80 7B 01 4D                     	CMP	BYTE [1+EBX],77
   544 000002FE 75 88                           	JNE	L50
   545 00000300 80 7B 02 4C                     	CMP	BYTE [2+EBX],76
   546 00000304 0F 85 FFFFFF7E                  	JNE	L50
   547 0000030A 68 [0000040A]                   	PUSH	LC11
   548 0000030F E8 [00000000]                   	CALL	_api_putstr0
   549 00000314 56                              	PUSH	ESI
   550 00000315 E8 [00000000]                   	CALL	_api_putstr0
   551 0000031A 68 [00000420]                   	PUSH	LC12
   552 0000031F EB 84                           	JMP	L56
   553 00000321                                 L57:
   554 00000321 80 7B 01 52                     	CMP	BYTE [1+EBX],82
   555 00000325 0F 85 FFFFFF59                  	JNE	L47
   556 0000032B 80 7B 02 42                     	CMP	BYTE [2+EBX],66
   557 0000032F 0F 85 FFFFFF4F                  	JNE	L47
   558 00000335 56                              	PUSH	ESI
   559 00000336 8D 5D D8                        	LEA	EBX,DWORD [-40+EBP]
   560 00000339 68 [00000426]                   	PUSH	LC5
   561 0000033E 53                              	PUSH	EBX
   562 0000033F E8 [00000000]                   	CALL	_sprintf
   563 00000344 68 [0000042D]                   	PUSH	LC6
   564 00000349 E8 [00000000]                   	CALL	_api_putstr0
   565 0000034E 53                              	PUSH	EBX
   566 0000034F E8 [00000000]                   	CALL	_api_putstr0
   567 00000354 68 [00000437]                   	PUSH	LC7
   568 00000359 E8 [00000000]                   	CALL	_api_putstr0
   569 0000035E 53                              	PUSH	EBX
   570 0000035F E8 [00000000]                   	CALL	_api_fopen
   571 00000364 83 C4 1C                        	ADD	ESP,28
   572 00000367 85 C0                           	TEST	EAX,EAX
   573 00000369 75 0F                           	JNE	L48
   574 0000036B 68 [0000043C]                   	PUSH	LC8
   575 00000370 E8 [00000000]                   	CALL	_api_putstr0
   576 00000375 E9 FFFFFF33                     	JMP	L46
   577 0000037A                                 L48:
   578 0000037A 50                              	PUSH	EAX
   579 0000037B E8 [00000000]                   	CALL	_api_fclose
   580 00000380 68 [0000044D]                   	PUSH	LC9
   581 00000385 E8 [00000000]                   	CALL	_api_putstr0
   582 0000038A 56                              	PUSH	ESI
   583 0000038B E8 [00000000]                   	CALL	_api_putstr0
   584 00000390 68 [000003E8]                   	PUSH	LC10
   585 00000395 E8 [00000000]                   	CALL	_api_putstr0
   586 0000039A 83 C4 10                        	ADD	ESP,16
   587 0000039D E9 FFFFFF0B                     	JMP	L46
